target datalayout = "e-m:e-p270:32:32-p271:32:32-p272:64:64-i64:64-i128:128-f80:128-n8:16:32:64-S128"
target triple = "x86_64-pc-linux-gnu"

%"class.cv::Mat" = type { i32, i32, i32, i32, ptr, ptr, ptr, ptr, ptr, ptr, %"struct.cv::MatSize", %"struct.cv::MatStep" }
%"struct.cv::MatSize" = type { ptr }
%"struct.cv::MatStep" = type { ptr, [2 x i64] }
%"class.cv::utils::trace::details::Region" = type <{ ptr, i32, [4 x i8] }>
%"class.cv::_InputArray" = type { i32, ptr, %"class.cv::Size_" }
%"class.cv::Size_" = type { i32, i32 }

; Function Attrs: inlinehint mustprogress uwtable
define linkonce_odr hidden void @_ZNK2cv11_InputArray6getMatEi(ptr dead_on_unwind noalias writable sret(%"class.cv::Mat") align 8 %0, ptr noundef nonnull align 8 dereferenceable(24) %1, i32 noundef %2) #6 comdat align 2 {
  %4 = alloca ptr, align 8
  %5 = alloca ptr, align 8
  %6 = alloca i32, align 4
  store ptr %0, ptr %4, align 8
  store ptr %1, ptr %5, align 8, !tbaa !51
  store i32 %2, ptr %6, align 4, !tbaa !20
  %7 = load ptr, ptr %5, align 8
  %8 = call noundef i32 @_ZNK2cv11_InputArray4kindEv(ptr noundef nonnull align 8 dereferenceable(24) %7)
  %9 = icmp eq i32 %8, 65536
  br i1 %9, label %10, label %16

10:                                               ; preds = %3
  %11 = load i32, ptr %6, align 4, !tbaa !20
  %12 = icmp slt i32 %11, 0
  br i1 %12, label %13, label %16

13:                                               ; preds = %10
  %14 = getelementptr inbounds nuw %"class.cv::_InputArray", ptr %7, i32 0, i32 1
  %15 = load ptr, ptr %14, align 8, !tbaa !53
  call void @_ZN2cv3MatC1ERKS0_(ptr noundef nonnull align 8 dereferenceable(96) %0, ptr noundef nonnull align 8 dereferenceable(96) %15)
  br label %18

16:                                               ; preds = %10, %3
  %17 = load i32, ptr %6, align 4, !tbaa !20
  call void @_ZNK2cv11_InputArray7getMat_Ei(ptr dead_on_unwind writable sret(%"class.cv::Mat") align 8 %0, ptr noundef nonnull align 8 dereferenceable(24) %7, i32 noundef %17)
  br label %18

18:                                               ; preds = %16, %13
  ret void
}

; Function Attrs: mustprogress uwtable
define void @_ZN2cv7vconcatERKNS_11_InputArrayES2_RKNS_12_OutputArrayE(ptr noundef nonnull align 8 dereferenceable(24) %0, ptr noundef nonnull align 8 dereferenceable(24) %1, ptr noundef nonnull align 8 dereferenceable(24) %2) #2 personality ptr @__gxx_personality_v0 {
  %4 = alloca ptr, align 8
  %5 = alloca ptr, align 8
  %6 = alloca ptr, align 8
  %7 = alloca %"class.cv::utils::trace::details::Region", align 8
  %8 = alloca [2 x %"class.cv::Mat"], align 16
  %9 = alloca ptr, align 8
  %10 = alloca ptr, align 8
  %11 = alloca i32, align 4
  store ptr %0, ptr %4, align 8, !tbaa !51
  store ptr %1, ptr %5, align 8, !tbaa !51
  store ptr %2, ptr %6, align 8, !tbaa !38
  call void @llvm.lifetime.start.p0(i64 16, ptr %7) #14
  call void @_ZN2cv5utils5trace7details6RegionC1ERKNS3_21LocationStaticStorageE(ptr noundef nonnull align 8 dereferenceable(12) %7, ptr noundef nonnull align 8 dereferenceable(32) @_ZZN2cv7vconcatERKNS_11_InputArrayES2_RKNS_12_OutputArrayEE25__cv_trace_location_fn126)
  call void @llvm.lifetime.start.p0(i64 192, ptr %8) #14
  store ptr %8, ptr %9, align 8
  %12 = load ptr, ptr %4, align 8, !tbaa !51
  invoke void @_ZNK2cv11_InputArray6getMatEi(ptr dead_on_unwind writable sret(%"class.cv::Mat") align 8 %8, ptr noundef nonnull align 8 dereferenceable(24) %12, i32 noundef -1)
          to label %13 unwind label %27

13:                                               ; preds = %3
  %14 = getelementptr inbounds %"class.cv::Mat", ptr %8, i64 1
  store ptr %14, ptr %9, align 8
  %15 = load ptr, ptr %5, align 8, !tbaa !51
  invoke void @_ZNK2cv11_InputArray6getMatEi(ptr dead_on_unwind writable sret(%"class.cv::Mat") align 8 %14, ptr noundef nonnull align 8 dereferenceable(24) %15, i32 noundef -1)
          to label %16 unwind label %27

16:                                               ; preds = %13
  %17 = getelementptr inbounds [2 x %"class.cv::Mat"], ptr %8, i64 0, i64 0
  %18 = load ptr, ptr %6, align 8, !tbaa !38
  invoke void @_ZN2cv7vconcatEPKNS_3MatEmRKNS_12_OutputArrayE(ptr noundef %17, i64 noundef 2, ptr noundef nonnull align 8 dereferenceable(24) %18)
          to label %19 unwind label %38

19:                                               ; preds = %16
  %20 = getelementptr inbounds [2 x %"class.cv::Mat"], ptr %8, i32 0, i32 0
  %21 = getelementptr inbounds %"class.cv::Mat", ptr %20, i64 2
  br label %22

22:                                               ; preds = %22, %19
  %23 = phi ptr [ %21, %19 ], [ %24, %22 ]
  %24 = getelementptr inbounds %"class.cv::Mat", ptr %23, i64 -1
  call void @_ZN2cv3MatD1Ev(ptr noundef nonnull align 8 dereferenceable(96) %24) #14
  %25 = icmp eq ptr %24, %20
  br i1 %25, label %26, label %22

26:                                               ; preds = %22
  call void @llvm.lifetime.end.p0(i64 192, ptr %8) #14
  call void @_ZN2cv5utils5trace7details6RegionD2Ev(ptr noundef nonnull align 8 dereferenceable(12) %7) #14
  call void @llvm.lifetime.end.p0(i64 16, ptr %7) #14
  ret void

27:                                               ; preds = %13, %3
  %28 = landingpad { ptr, i32 }
          cleanup
  %29 = extractvalue { ptr, i32 } %28, 0
  store ptr %29, ptr %10, align 8
  %30 = extractvalue { ptr, i32 } %28, 1
  store i32 %30, ptr %11, align 4
  %31 = load ptr, ptr %9, align 8
  %32 = icmp eq ptr %8, %31
  br i1 %32, label %37, label %33

33:                                               ; preds = %33, %27
  %34 = phi ptr [ %31, %27 ], [ %35, %33 ]
  %35 = getelementptr inbounds %"class.cv::Mat", ptr %34, i64 -1
  call void @_ZN2cv3MatD1Ev(ptr noundef nonnull align 8 dereferenceable(96) %35) #14
  %36 = icmp eq ptr %35, %8
  br i1 %36, label %37, label %33

37:                                               ; preds = %33, %27
  br label %49

38:                                               ; preds = %16
  %39 = landingpad { ptr, i32 }
          cleanup
  %40 = extractvalue { ptr, i32 } %39, 0
  store ptr %40, ptr %10, align 8
  %41 = extractvalue { ptr, i32 } %39, 1
  store i32 %41, ptr %11, align 4
  %42 = getelementptr inbounds [2 x %"class.cv::Mat"], ptr %8, i32 0, i32 0
  %43 = getelementptr inbounds %"class.cv::Mat", ptr %42, i64 2
  br label %44

44:                                               ; preds = %44, %38
  %45 = phi ptr [ %43, %38 ], [ %46, %44 ]
  %46 = getelementptr inbounds %"class.cv::Mat", ptr %45, i64 -1
  call void @_ZN2cv3MatD1Ev(ptr noundef nonnull align 8 dereferenceable(96) %46) #14
  %47 = icmp eq ptr %46, %42
  br i1 %47, label %48, label %44

48:                                               ; preds = %44
  br label %49

49:                                               ; preds = %48, %37
  call void @llvm.lifetime.end.p0(i64 192, ptr %8) #14
  call void @_ZN2cv5utils5trace7details6RegionD2Ev(ptr noundef nonnull align 8 dereferenceable(12) %7) #14
  call void @llvm.lifetime.end.p0(i64 16, ptr %7) #14
  br label %50

50:                                               ; preds = %49
  %51 = load ptr, ptr %10, align 8
  %52 = load i32, ptr %11, align 4
  %53 = insertvalue { ptr, i32 } poison, ptr %51, 0
  %54 = insertvalue { ptr, i32 } %53, i32 %52, 1
  resume { ptr, i32 } %54
}